; Function Attrs: mustprogress nounwind uwtable
define dso_local noundef zeroext i1 @_ZN4Luau28TypeFunctionReductionGuesser15isOrAndFunctionERKNS_24TypeFunctionInstanceTypeE(ptr noundef nonnull readnone align 8 captures(none) dereferenceable(176) %0, ptr noundef nonnull readonly align 8 captures(none) dereferenceable(224) %1) local_unnamed_addr #12 align 2 {
  %3 = load ptr, ptr %1, align 8, !tbaa !233
  %4 = tail call noundef i32 @_ZNKSt7__cxx1112basic_stringIcSt11char_traitsIcESaIcEE7compareEPKc(ptr noundef nonnull align 8 dereferenceable(32) %3, ptr noundef nonnull @.str.68) #28
  %5 = icmp eq i32 %4, 0
  br i1 %5, label %10, label %6

6:                                                ; preds = %2
  %7 = load ptr, ptr %1, align 8, !tbaa !233
  %8 = tail call noundef i32 @_ZNKSt7__cxx1112basic_stringIcSt11char_traitsIcESaIcEE7compareEPKc(ptr noundef nonnull align 8 dereferenceable(32) %7, ptr noundef nonnull @.str.69) #28
  %9 = icmp eq i32 %8, 0
  br label %10

10:                                               ; preds = %6, %2
  %11 = phi i1 [ true, %2 ], [ %9, %6 ]
  ret i1 %11
}